target datalayout = "e-m:e-p270:32:32-p271:32:32-p272:64:64-i64:64-i128:128-f80:128-n8:16:32:64-S128"
target triple = "x86_64-pc-linux-gnu"

%union.ListCell = type { ptr }
%struct.ForEachState = type { ptr, i32 }
%struct.SQLFunctionCache = type { ptr, ptr, ptr, i32, i16, i8, i8, i8, i8, i8, i8, ptr, ptr, ptr, ptr, ptr, i32, i32 }
%struct.List = type { i32, i32, i32, ptr, [0 x %union.ListCell] }
%struct.execution_state = type { ptr, i32, i8, i8, ptr, ptr }
%struct.QueryDesc = type { i32, ptr, ptr, ptr, ptr, ptr, ptr, ptr, i32, ptr, ptr, ptr, i8, ptr }
%struct._DestReceiver = type { ptr, ptr, ptr, ptr, i32 }

; Function Attrs: nounwind uwtable
define internal void @postquel_end(ptr noundef %0) #0 {
  %2 = alloca ptr, align 8
  store ptr %0, ptr %2, align 8
  %3 = load ptr, ptr %2, align 8
  %4 = getelementptr inbounds nuw %struct.execution_state, ptr %3, i32 0, i32 1
  store i32 2, ptr %4, align 8
  %5 = load ptr, ptr %2, align 8
  %6 = getelementptr inbounds nuw %struct.execution_state, ptr %5, i32 0, i32 5
  %7 = load ptr, ptr %6, align 8
  %8 = getelementptr inbounds nuw %struct.QueryDesc, ptr %7, i32 0, i32 0
  %9 = load i32, ptr %8, align 8
  %10 = icmp ne i32 %9, 6
  br i1 %10, label %11, label %18

11:                                               ; preds = %1
  %12 = load ptr, ptr %2, align 8
  %13 = getelementptr inbounds nuw %struct.execution_state, ptr %12, i32 0, i32 5
  %14 = load ptr, ptr %13, align 8
  call void @ExecutorFinish(ptr noundef %14)
  %15 = load ptr, ptr %2, align 8
  %16 = getelementptr inbounds nuw %struct.execution_state, ptr %15, i32 0, i32 5
  %17 = load ptr, ptr %16, align 8
  call void @ExecutorEnd(ptr noundef %17)
  br label %18

18:                                               ; preds = %11, %1
  %19 = load ptr, ptr %2, align 8
  %20 = getelementptr inbounds nuw %struct.execution_state, ptr %19, i32 0, i32 5
  %21 = load ptr, ptr %20, align 8
  %22 = getelementptr inbounds nuw %struct.QueryDesc, ptr %21, i32 0, i32 5
  %23 = load ptr, ptr %22, align 8
  %24 = getelementptr inbounds nuw %struct._DestReceiver, ptr %23, i32 0, i32 3
  %25 = load ptr, ptr %24, align 8
  %26 = load ptr, ptr %2, align 8
  %27 = getelementptr inbounds nuw %struct.execution_state, ptr %26, i32 0, i32 5
  %28 = load ptr, ptr %27, align 8
  %29 = getelementptr inbounds nuw %struct.QueryDesc, ptr %28, i32 0, i32 5
  %30 = load ptr, ptr %29, align 8
  call void %25(ptr noundef %30)
  %31 = load ptr, ptr %2, align 8
  %32 = getelementptr inbounds nuw %struct.execution_state, ptr %31, i32 0, i32 5
  %33 = load ptr, ptr %32, align 8
  call void @FreeQueryDesc(ptr noundef %33)
  %34 = load ptr, ptr %2, align 8
  %35 = getelementptr inbounds nuw %struct.execution_state, ptr %34, i32 0, i32 5
  store ptr null, ptr %35, align 8
  ret void
}

; Function Attrs: inlinehint nounwind uwtable
define internal ptr @DatumGetPointer(i64 noundef %0) #2 {
  %2 = alloca i64, align 8
  store i64 %0, ptr %2, align 8
  %3 = load i64, ptr %2, align 8
  %4 = inttoptr i64 %3 to ptr
  ret ptr %4
}

; Function Attrs: nounwind uwtable
define internal void @ShutdownSQLFunction(i64 noundef %0) #0 {
  %2 = alloca i64, align 8
  %3 = alloca ptr, align 8
  %4 = alloca ptr, align 8
  %5 = alloca ptr, align 8
  %6 = alloca %struct.ForEachState, align 8
  store i64 %0, ptr %2, align 8
  call void @llvm.lifetime.start.p0(i64 8, ptr %3) #8
  %7 = load i64, ptr %2, align 8
  %8 = call ptr @DatumGetPointer(i64 noundef %7)
  store ptr %8, ptr %3, align 8
  call void @llvm.lifetime.start.p0(i64 8, ptr %4) #8
  call void @llvm.lifetime.start.p0(i64 8, ptr %5) #8
  call void @llvm.lifetime.start.p0(i64 16, ptr %6) #8
  %9 = getelementptr inbounds nuw %struct.ForEachState, ptr %6, i32 0, i32 0
  %10 = load ptr, ptr %3, align 8
  %11 = getelementptr inbounds nuw %struct.SQLFunctionCache, ptr %10, i32 0, i32 14
  %12 = load ptr, ptr %11, align 8
  store ptr %12, ptr %9, align 8
  %13 = getelementptr inbounds nuw %struct.ForEachState, ptr %6, i32 0, i32 1
  store i32 0, ptr %13, align 8
  %14 = getelementptr i8, ptr %6, i64 12
  call void @llvm.memset.p0.i64(ptr align 4 %14, i8 0, i64 4, i1 false)
  br label %15

15:                                               ; preds = %78, %1
  %16 = getelementptr inbounds nuw %struct.ForEachState, ptr %6, i32 0, i32 0
  %17 = load ptr, ptr %16, align 8
  %18 = icmp ne ptr %17, null
  br i1 %18, label %19, label %36

19:                                               ; preds = %15
  %20 = getelementptr inbounds nuw %struct.ForEachState, ptr %6, i32 0, i32 1
  %21 = load i32, ptr %20, align 8
  %22 = getelementptr inbounds nuw %struct.ForEachState, ptr %6, i32 0, i32 0
  %23 = load ptr, ptr %22, align 8
  %24 = getelementptr inbounds nuw %struct.List, ptr %23, i32 0, i32 1
  %25 = load i32, ptr %24, align 4
  %26 = icmp slt i32 %21, %25
  br i1 %26, label %27, label %36

27:                                               ; preds = %19
  %28 = getelementptr inbounds nuw %struct.ForEachState, ptr %6, i32 0, i32 0
  %29 = load ptr, ptr %28, align 8
  %30 = getelementptr inbounds nuw %struct.List, ptr %29, i32 0, i32 3
  %31 = load ptr, ptr %30, align 8
  %32 = getelementptr inbounds nuw %struct.ForEachState, ptr %6, i32 0, i32 1
  %33 = load i32, ptr %32, align 8
  %34 = sext i32 %33 to i64
  %35 = getelementptr inbounds %union.ListCell, ptr %31, i64 %34
  store ptr %35, ptr %5, align 8
  br label %37

36:                                               ; preds = %19, %15
  store ptr null, ptr %5, align 8
  br label %37

37:                                               ; preds = %36, %27
  %38 = phi i32 [ 1, %27 ], [ 0, %36 ]
  %39 = icmp ne i32 %38, 0
  br i1 %39, label %41, label %40

40:                                               ; preds = %37
  call void @llvm.lifetime.end.p0(i64 16, ptr %6) #8
  br label %82

41:                                               ; preds = %37
  %42 = load ptr, ptr %5, align 8
  %43 = load ptr, ptr %42, align 8
  store ptr %43, ptr %4, align 8
  br label %44

44:                                               ; preds = %71, %41
  %45 = load ptr, ptr %4, align 8
  %46 = icmp ne ptr %45, null
  br i1 %46, label %47, label %77

47:                                               ; preds = %44
  %48 = load ptr, ptr %4, align 8
  %49 = getelementptr inbounds nuw %struct.execution_state, ptr %48, i32 0, i32 1
  %50 = load i32, ptr %49, align 8
  %51 = icmp eq i32 %50, 1
  br i1 %51, label %52, label %71

52:                                               ; preds = %47
  %53 = load ptr, ptr %3, align 8
  %54 = getelementptr inbounds nuw %struct.SQLFunctionCache, ptr %53, i32 0, i32 9
  %55 = load i8, ptr %54, align 2, !range !6, !noundef !7
  %56 = trunc i8 %55 to i1
  br i1 %56, label %63, label %57

57:                                               ; preds = %52
  %58 = load ptr, ptr %4, align 8
  %59 = getelementptr inbounds nuw %struct.execution_state, ptr %58, i32 0, i32 5
  %60 = load ptr, ptr %59, align 8
  %61 = getelementptr inbounds nuw %struct.QueryDesc, ptr %60, i32 0, i32 3
  %62 = load ptr, ptr %61, align 8
  call void @PushActiveSnapshot(ptr noundef %62)
  br label %63

63:                                               ; preds = %57, %52
  %64 = load ptr, ptr %4, align 8
  call void @postquel_end(ptr noundef %64)
  %65 = load ptr, ptr %3, align 8
  %66 = getelementptr inbounds nuw %struct.SQLFunctionCache, ptr %65, i32 0, i32 9
  %67 = load i8, ptr %66, align 2, !range !6, !noundef !7
  %68 = trunc i8 %67 to i1
  br i1 %68, label %70, label %69

69:                                               ; preds = %63
  call void @PopActiveSnapshot()
  br label %70

70:                                               ; preds = %69, %63
  br label %71

71:                                               ; preds = %70, %47
  %72 = load ptr, ptr %4, align 8
  %73 = getelementptr inbounds nuw %struct.execution_state, ptr %72, i32 0, i32 1
  store i32 0, ptr %73, align 8
  %74 = load ptr, ptr %4, align 8
  %75 = getelementptr inbounds nuw %struct.execution_state, ptr %74, i32 0, i32 0
  %76 = load ptr, ptr %75, align 8
  store ptr %76, ptr %4, align 8
  br label %44, !llvm.loop !19

77:                                               ; preds = %44
  br label %78

78:                                               ; preds = %77
  %79 = getelementptr inbounds nuw %struct.ForEachState, ptr %6, i32 0, i32 1
  %80 = load i32, ptr %79, align 8
  %81 = add i32 %80, 1
  store i32 %81, ptr %79, align 8
  br label %15, !llvm.loop !20

82:                                               ; preds = %40
  %83 = load ptr, ptr %3, align 8
  %84 = getelementptr inbounds nuw %struct.SQLFunctionCache, ptr %83, i32 0, i32 12
  %85 = load ptr, ptr %84, align 8
  %86 = icmp ne ptr %85, null
  br i1 %86, label %87, label %91

87:                                               ; preds = %82
  %88 = load ptr, ptr %3, align 8
  %89 = getelementptr inbounds nuw %struct.SQLFunctionCache, ptr %88, i32 0, i32 12
  %90 = load ptr, ptr %89, align 8
  call void @tuplestore_end(ptr noundef %90)
  br label %91

91:                                               ; preds = %87, %82
  %92 = load ptr, ptr %3, align 8
  %93 = getelementptr inbounds nuw %struct.SQLFunctionCache, ptr %92, i32 0, i32 12
  store ptr null, ptr %93, align 8
  %94 = load ptr, ptr %3, align 8
  %95 = getelementptr inbounds nuw %struct.SQLFunctionCache, ptr %94, i32 0, i32 8
  store i8 0, ptr %95, align 1
  call void @llvm.lifetime.end.p0(i64 8, ptr %5) #8
  call void @llvm.lifetime.end.p0(i64 8, ptr %4) #8
  call void @llvm.lifetime.end.p0(i64 8, ptr %3) #8
  ret void
}