; Function Attrs: nounwind uwtable
define internal void @ShutdownSQLFunction(i64 noundef %0) #0 {
  %2 = inttoptr i64 %0 to ptr
  %3 = getelementptr inbounds nuw i8, ptr %2, i64 64
  %4 = load ptr, ptr %3, align 8
  %5 = getelementptr inbounds nuw i8, ptr %4, i64 4
  %.not = icmp eq ptr %4, null
  br i1 %.not, label %._crit_edge32, label %.lr.ph31

.lr.ph31:                                         ; preds = %1
  %6 = getelementptr inbounds nuw i8, ptr %4, i64 16
  %7 = getelementptr inbounds nuw i8, ptr %2, i64 34
  %8 = load i32, ptr %5, align 4
  %9 = icmp sgt i32 %8, 0
  br i1 %9, label %.lr.ph36, label %._crit_edge32

.lr.ph36:                                         ; preds = %.lr.ph31, %._crit_edge
  %indvars.iv35 = phi i64 [ %indvars.iv.next, %._crit_edge ], [ 0, %.lr.ph31 ]
  %10 = load ptr, ptr %6, align 8
  %11 = getelementptr inbounds nuw %union.ListCell, ptr %10, i64 %indvars.iv35
  %.026 = load ptr, ptr %11, align 8
  %.not2327 = icmp eq ptr %.026, null
  br i1 %.not2327, label %._crit_edge, label %.lr.ph

._crit_edge32:                                    ; preds = %._crit_edge, %.lr.ph31, %1
  %12 = getelementptr inbounds nuw i8, ptr %2, i64 48
  %13 = load ptr, ptr %12, align 8
  %.not22 = icmp eq ptr %13, null
  br i1 %.not22, label %45, label %44

.lr.ph:                                           ; preds = %.lr.ph36, %40
  %.028 = phi ptr [ %.0, %40 ], [ %.026, %.lr.ph36 ]
  %14 = getelementptr inbounds nuw i8, ptr %.028, i64 8
  %15 = load i32, ptr %14, align 8
  %16 = icmp eq i32 %15, 1
  br i1 %16, label %17, label %40

17:                                               ; preds = %.lr.ph
  %18 = load i8, ptr %7, align 2, !range !6, !noundef !7
  %19 = trunc nuw i8 %18 to i1
  br i1 %19, label %25, label %20

20:                                               ; preds = %17
  %21 = getelementptr inbounds nuw i8, ptr %.028, i64 24
  %22 = load ptr, ptr %21, align 8
  %23 = getelementptr inbounds nuw i8, ptr %22, i64 24
  %24 = load ptr, ptr %23, align 8
  tail call void @PushActiveSnapshot(ptr noundef %24) #11
  br label %25

25:                                               ; preds = %20, %17
  store i32 2, ptr %14, align 8
  %26 = getelementptr inbounds nuw i8, ptr %.028, i64 24
  %27 = load ptr, ptr %26, align 8
  %28 = load i32, ptr %27, align 8
  %.not.i = icmp eq i32 %28, 6
  br i1 %.not.i, label %postquel_end.exit, label %29

29:                                               ; preds = %25
  tail call void @ExecutorFinish(ptr noundef nonnull %27) #11
  %30 = load ptr, ptr %26, align 8
  tail call void @ExecutorEnd(ptr noundef %30) #11
  %.pre.i = load ptr, ptr %26, align 8
  br label %postquel_end.exit

postquel_end.exit:                                ; preds = %25, %29
  %31 = phi ptr [ %.pre.i, %29 ], [ %27, %25 ]
  %32 = getelementptr inbounds nuw i8, ptr %31, i64 40
  %33 = load ptr, ptr %32, align 8
  %34 = getelementptr inbounds nuw i8, ptr %33, i64 24
  %35 = load ptr, ptr %34, align 8
  tail call void %35(ptr noundef %33) #11
  %36 = load ptr, ptr %26, align 8
  tail call void @FreeQueryDesc(ptr noundef %36) #11
  store ptr null, ptr %26, align 8
  %37 = load i8, ptr %7, align 2, !range !6, !noundef !7
  %38 = trunc nuw i8 %37 to i1
  br i1 %38, label %40, label %39

39:                                               ; preds = %postquel_end.exit
  tail call void @PopActiveSnapshot() #11
  br label %40

40:                                               ; preds = %postquel_end.exit, %39, %.lr.ph
  store i32 0, ptr %14, align 8
  %.0 = load ptr, ptr %.028, align 8
  %.not23 = icmp eq ptr %.0, null
  br i1 %.not23, label %._crit_edge, label %.lr.ph, !llvm.loop !15

._crit_edge:                                      ; preds = %40, %.lr.ph36
  %indvars.iv.next = add nuw nsw i64 %indvars.iv35, 1
  %41 = load i32, ptr %5, align 4
  %42 = sext i32 %41 to i64
  %43 = icmp slt i64 %indvars.iv.next, %42
  br i1 %43, label %.lr.ph36, label %._crit_edge32

44:                                               ; preds = %._crit_edge32
  tail call void @tuplestore_end(ptr noundef nonnull %13) #11
  br label %45

45:                                               ; preds = %44, %._crit_edge32
  store ptr null, ptr %12, align 8
  %46 = getelementptr inbounds nuw i8, ptr %2, i64 33
  store i8 0, ptr %46, align 1
  ret void
}